; Function Attrs: mustprogress nounwind uwtable
define hidden void @_ZN16ModuleEntryTable21init_archived_entriesEP5ArrayIP11ModuleEntryE(ptr nocapture noundef nonnull readnone align 8 dereferenceable(880) %0, ptr nocapture noundef readonly %1) local_unnamed_addr #0 align 2 {
  %3 = load i32, ptr %1, align 8
  %4 = icmp sgt i32 %3, 0
  br i1 %4, label %.lr.ph, label %._crit_edge

.lr.ph:                                           ; preds = %2
  %5 = getelementptr inbounds i8, ptr %1, i64 8
  br label %6

6:                                                ; preds = %.lr.ph, %6
  %indvars.iv = phi i64 [ 0, %.lr.ph ], [ %indvars.iv.next, %6 ]
  %7 = getelementptr inbounds ptr, ptr %5, i64 %indvars.iv
  %8 = load ptr, ptr %7, align 8
  tail call void @_ZN11ModuleEntry22init_as_archived_entryEv(ptr noundef nonnull align 8 dereferenceable(80) %8)
  %indvars.iv.next = add nuw nsw i64 %indvars.iv, 1
  %9 = load i32, ptr %1, align 8
  %10 = sext i32 %9 to i64
  %11 = icmp slt i64 %indvars.iv.next, %10
  br i1 %11, label %6, label %._crit_edge, !llvm.loop !25

._crit_edge:                                      ; preds = %6, %2
  ret void
}